; Function Attrs: nounwind uwtable
define dso_local void @append_remote_object_url(ptr noundef %0, ptr noundef %1, ptr noundef %2, i32 noundef %3) local_unnamed_addr #3 {
  tail call void @end_url_with_slash(ptr noundef %0, ptr noundef %1) #22
  tail call void (ptr, ptr, ...) @strbuf_addf(ptr noundef %0, ptr noundef nonnull @.str.36, i32 noundef 2, ptr noundef %2) #22
  %.not = icmp eq i32 %3, 0
  br i1 %.not, label %5, label %8

5:                                                ; preds = %4
  %6 = getelementptr inbounds nuw i8, ptr %2, i64 2
  %7 = tail call i64 @strlen(ptr noundef nonnull dereferenceable(1) %6) #23
  tail call void @strbuf_add(ptr noundef %0, ptr noundef nonnull %6, i64 noundef %7) #22
  br label %8

8:                                                ; preds = %5, %4
  ret void
}